target datalayout = "e-m:e-p270:32:32-p271:32:32-p272:64:64-i64:64-i128:128-f80:128-n8:16:32:64-S128"
target triple = "x86_64-pc-linux-gnu"

@blas_threads = internal global [16 x i64] zeroinitializer, align 16

; Function Attrs: nounwind uwtable
define i32 @openblas_getaffinity(i32 noundef %0, i64 noundef %1, ptr noundef %2) #0 {
  %4 = alloca i32, align 4
  %5 = alloca i32, align 4
  %6 = alloca i64, align 8
  %7 = alloca ptr, align 8
  %8 = alloca i32, align 4
  %9 = alloca i32, align 4
  %10 = alloca i64, align 8
  store i32 %0, ptr %5, align 4, !tbaa !3
  store i64 %1, ptr %6, align 8, !tbaa !7
  store ptr %2, ptr %7, align 8, !tbaa !9
  call void @llvm.lifetime.start.p0(i64 4, ptr %8) #8
  %11 = call i32 @openblas_get_num_threads()
  store i32 %11, ptr %8, align 4, !tbaa !3
  %12 = load i32, ptr %5, align 4, !tbaa !3
  %13 = icmp slt i32 %12, 0
  br i1 %13, label %18, label %14

14:                                               ; preds = %3
  %15 = load i32, ptr %5, align 4, !tbaa !3
  %16 = load i32, ptr %8, align 4, !tbaa !3
  %17 = icmp sge i32 %15, %16
  br i1 %17, label %18, label %20

18:                                               ; preds = %14, %3
  %19 = call ptr @__errno_location() #9
  store i32 22, ptr %19, align 4, !tbaa !3
  store i32 -1, ptr %4, align 4
  store i32 1, ptr %9, align 4
  br label %38

20:                                               ; preds = %14
  call void @llvm.lifetime.start.p0(i64 8, ptr %10) #8
  %21 = load i32, ptr %5, align 4, !tbaa !3
  %22 = load i32, ptr %8, align 4, !tbaa !3
  %23 = sub nsw i32 %22, 1
  %24 = icmp eq i32 %21, %23
  br i1 %24, label %25, label %27

25:                                               ; preds = %20
  %26 = call i64 @pthread_self() #9
  br label %32

27:                                               ; preds = %20
  %28 = load i32, ptr %5, align 4, !tbaa !3
  %29 = sext i32 %28 to i64
  %30 = getelementptr inbounds [16 x i64], ptr @blas_threads, i64 0, i64 %29
  %31 = load i64, ptr %30, align 8, !tbaa !7
  br label %32

32:                                               ; preds = %27, %25
  %33 = phi i64 [ %26, %25 ], [ %31, %27 ]
  store i64 %33, ptr %10, align 8, !tbaa !7
  %34 = load i64, ptr %10, align 8, !tbaa !7
  %35 = load i64, ptr %6, align 8, !tbaa !7
  %36 = load ptr, ptr %7, align 8, !tbaa !9
  %37 = call i32 @pthread_getaffinity_np(i64 noundef %34, i64 noundef %35, ptr noundef %36) #8
  store i32 %37, ptr %4, align 4
  store i32 1, ptr %9, align 4
  call void @llvm.lifetime.end.p0(i64 8, ptr %10) #8
  br label %38

38:                                               ; preds = %32, %18
  call void @llvm.lifetime.end.p0(i64 4, ptr %8) #8
  %39 = load i32, ptr %4, align 4
  ret i32 %39
}